target datalayout = "e-m:e-p270:32:32-p271:32:32-p272:64:64-i64:64-i128:128-f80:128-n8:16:32:64-S128"
target triple = "x86_64-pc-linux-gnu"

%struct.AllocateDesc = type { i32, i32, %union.anon }
%union.anon = type { ptr }

@.str.1 = private unnamed_addr constant [5 x i8] c"fd.c\00", align 1
@allocatedDescs = internal global ptr null, align 8
@numAllocatedDescs = internal global i32 0, align 4
@.str.33 = private unnamed_addr constant [56 x i8] c"dir passed to FreeDir was not obtained from AllocateDir\00", align 1
@__func__.FreeDir = private unnamed_addr constant [8 x i8] c"FreeDir\00", align 1

; Function Attrs: nounwind uwtable
define dso_local i32 @FreeDir(ptr noundef %0) #0 {
  %2 = alloca i32, align 4
  %3 = alloca ptr, align 8
  %4 = alloca i32, align 4
  %5 = alloca i32, align 4
  %6 = alloca ptr, align 8
  store ptr %0, ptr %3, align 8
  call void @llvm.lifetime.start.p0(i64 4, ptr %4) #14
  %7 = load ptr, ptr %3, align 8
  %8 = icmp eq ptr %7, null
  br i1 %8, label %9, label %10

9:                                                ; preds = %1
  store i32 0, ptr %2, align 4
  store i32 1, ptr %5, align 4
  br label %51

10:                                               ; preds = %1
  %11 = load i32, ptr @numAllocatedDescs, align 4
  store i32 %11, ptr %4, align 4
  br label %12

12:                                               ; preds = %37, %10
  %13 = load i32, ptr %4, align 4
  %14 = add i32 %13, -1
  store i32 %14, ptr %4, align 4
  %15 = icmp sge i32 %14, 0
  br i1 %15, label %16, label %38

16:                                               ; preds = %12
  call void @llvm.lifetime.start.p0(i64 8, ptr %6) #14
  %17 = load ptr, ptr @allocatedDescs, align 8
  %18 = load i32, ptr %4, align 4
  %19 = sext i32 %18 to i64
  %20 = getelementptr inbounds %struct.AllocateDesc, ptr %17, i64 %19
  store ptr %20, ptr %6, align 8
  %21 = load ptr, ptr %6, align 8
  %22 = getelementptr inbounds nuw %struct.AllocateDesc, ptr %21, i32 0, i32 0
  %23 = load i32, ptr %22, align 8
  %24 = icmp eq i32 %23, 2
  br i1 %24, label %25, label %34

25:                                               ; preds = %16
  %26 = load ptr, ptr %6, align 8
  %27 = getelementptr inbounds nuw %struct.AllocateDesc, ptr %26, i32 0, i32 2
  %28 = load ptr, ptr %27, align 8
  %29 = load ptr, ptr %3, align 8
  %30 = icmp eq ptr %28, %29
  br i1 %30, label %31, label %34

31:                                               ; preds = %25
  %32 = load ptr, ptr %6, align 8
  %33 = call i32 @FreeDesc(ptr noundef %32)
  store i32 %33, ptr %2, align 4
  store i32 1, ptr %5, align 4
  br label %35

34:                                               ; preds = %25, %16
  store i32 0, ptr %5, align 4
  br label %35

35:                                               ; preds = %34, %31
  call void @llvm.lifetime.end.p0(i64 8, ptr %6) #14
  %36 = load i32, ptr %5, align 4
  switch i32 %36, label %51 [
    i32 0, label %37
  ]

37:                                               ; preds = %35
  br label %12, !llvm.loop !16

38:                                               ; preds = %12
  br label %39

39:                                               ; preds = %38
  br i1 false, label %40, label %42

40:                                               ; preds = %39
  %41 = call zeroext i1 @errstart_cold(i32 noundef 19, ptr noundef null) #16
  br i1 %41, label %44, label %46

42:                                               ; preds = %39
  %43 = call zeroext i1 @errstart(i32 noundef 19, ptr noundef null)
  br i1 %43, label %44, label %46

44:                                               ; preds = %42, %40
  %45 = call i32 (ptr, ...) @errmsg_internal(ptr noundef @.str.33)
  call void @errfinish(ptr noundef @.str.1, i32 noundef 3003, ptr noundef @__func__.FreeDir)
  br label %46

46:                                               ; preds = %44, %42, %40
  br label %47

47:                                               ; preds = %46
  br label %48

48:                                               ; preds = %47
  %49 = load ptr, ptr %3, align 8
  %50 = call i32 @closedir(ptr noundef %49)
  store i32 %50, ptr %2, align 4
  store i32 1, ptr %5, align 4
  br label %51

51:                                               ; preds = %48, %35, %9
  call void @llvm.lifetime.end.p0(i64 4, ptr %4) #14
  %52 = load i32, ptr %2, align 4
  ret i32 %52
}