; Function Attrs: nounwind uwtable
define dso_local i32 @FreeDir(ptr noundef captures(address) %0) local_unnamed_addr #0 {
  %2 = icmp eq ptr %0, null
  br i1 %2, label %25, label %3

3:                                                ; preds = %1
  %4 = load i32, ptr @numAllocatedDescs, align 4
  %5 = add i32 %4, -1
  %6 = icmp sgt i32 %5, -1
  br i1 %6, label %.lr.ph, label %._crit_edge

.lr.ph:                                           ; preds = %3
  %7 = load ptr, ptr @allocatedDescs, align 8
  %8 = zext nneg i32 %5 to i64
  br label %9

9:                                                ; preds = %.lr.ph, %18
  %indvars.iv = phi i64 [ %8, %.lr.ph ], [ %indvars.iv.next, %18 ]
  %10 = getelementptr inbounds nuw %struct.AllocateDesc, ptr %7, i64 %indvars.iv
  %11 = load i32, ptr %10, align 8
  %12 = icmp eq i32 %11, 2
  br i1 %12, label %13, label %18

13:                                               ; preds = %9
  %14 = getelementptr inbounds nuw i8, ptr %10, i64 8
  %15 = load ptr, ptr %14, align 8
  %16 = icmp eq ptr %15, %0
  br i1 %16, label %.thread, label %18

.thread:                                          ; preds = %13
  %17 = tail call fastcc i32 @FreeDesc(ptr noundef nonnull %10)
  br label %25

18:                                               ; preds = %9, %13
  %indvars.iv.next = add nsw i64 %indvars.iv, -1
  %19 = icmp sgt i64 %indvars.iv, 0
  br i1 %19, label %9, label %._crit_edge, !llvm.loop !14

._crit_edge:                                      ; preds = %18, %3
  %20 = tail call zeroext i1 @errstart(i32 noundef 19, ptr noundef null) #25
  br i1 %20, label %21, label %23

21:                                               ; preds = %._crit_edge
  %22 = tail call i32 (ptr, ...) @errmsg_internal(ptr noundef nonnull @.str.33) #25
  tail call void @errfinish(ptr noundef nonnull @.str.1, i32 noundef 3003, ptr noundef nonnull @__func__.FreeDir) #25
  br label %23

23:                                               ; preds = %21, %._crit_edge
  %24 = tail call i32 @closedir(ptr noundef nonnull %0)
  br label %25

25:                                               ; preds = %.thread, %1, %23
  %.0 = phi i32 [ %24, %23 ], [ 0, %1 ], [ %17, %.thread ]
  ret i32 %.0
}